target datalayout = "e-m:e-p270:32:32-p271:32:32-p272:64:64-i64:64-i128:128-f80:128-n8:16:32:64-S128"
target triple = "x86_64-pc-linux-gnu"

%struct.VP9DSPContext = type { [4 x [15 x ptr]], [5 x [4 x ptr]], [3 x [2 x ptr]], [2 x ptr], [2 x [2 x [2 x ptr]]], [5 x [4 x [2 x [2 x [2 x ptr]]]]], [5 x [4 x [2 x ptr]]] }

; Function Attrs: cold nounwind optsize uwtable
define internal void @vp9dsp_itxfm_init(ptr noundef %0) #0 {
  %2 = alloca ptr, align 8
  store ptr %0, ptr %2, align 8, !tbaa !4
  %3 = load ptr, ptr %2, align 8, !tbaa !4
  %4 = getelementptr inbounds nuw %struct.VP9DSPContext, ptr %3, i32 0, i32 1
  %5 = getelementptr inbounds [5 x [4 x ptr]], ptr %4, i64 0, i64 0
  %6 = getelementptr inbounds [4 x ptr], ptr %5, i64 0, i64 0
  store ptr @idct_idct_4x4_add_c, ptr %6, align 8, !tbaa !9
  %7 = load ptr, ptr %2, align 8, !tbaa !4
  %8 = getelementptr inbounds nuw %struct.VP9DSPContext, ptr %7, i32 0, i32 1
  %9 = getelementptr inbounds [5 x [4 x ptr]], ptr %8, i64 0, i64 0
  %10 = getelementptr inbounds [4 x ptr], ptr %9, i64 0, i64 1
  store ptr @iadst_idct_4x4_add_c, ptr %10, align 8, !tbaa !9
  %11 = load ptr, ptr %2, align 8, !tbaa !4
  %12 = getelementptr inbounds nuw %struct.VP9DSPContext, ptr %11, i32 0, i32 1
  %13 = getelementptr inbounds [5 x [4 x ptr]], ptr %12, i64 0, i64 0
  %14 = getelementptr inbounds [4 x ptr], ptr %13, i64 0, i64 2
  store ptr @idct_iadst_4x4_add_c, ptr %14, align 8, !tbaa !9
  %15 = load ptr, ptr %2, align 8, !tbaa !4
  %16 = getelementptr inbounds nuw %struct.VP9DSPContext, ptr %15, i32 0, i32 1
  %17 = getelementptr inbounds [5 x [4 x ptr]], ptr %16, i64 0, i64 0
  %18 = getelementptr inbounds [4 x ptr], ptr %17, i64 0, i64 3
  store ptr @iadst_iadst_4x4_add_c, ptr %18, align 8, !tbaa !9
  %19 = load ptr, ptr %2, align 8, !tbaa !4
  %20 = getelementptr inbounds nuw %struct.VP9DSPContext, ptr %19, i32 0, i32 1
  %21 = getelementptr inbounds [5 x [4 x ptr]], ptr %20, i64 0, i64 1
  %22 = getelementptr inbounds [4 x ptr], ptr %21, i64 0, i64 0
  store ptr @idct_idct_8x8_add_c, ptr %22, align 8, !tbaa !9
  %23 = load ptr, ptr %2, align 8, !tbaa !4
  %24 = getelementptr inbounds nuw %struct.VP9DSPContext, ptr %23, i32 0, i32 1
  %25 = getelementptr inbounds [5 x [4 x ptr]], ptr %24, i64 0, i64 1
  %26 = getelementptr inbounds [4 x ptr], ptr %25, i64 0, i64 1
  store ptr @iadst_idct_8x8_add_c, ptr %26, align 8, !tbaa !9
  %27 = load ptr, ptr %2, align 8, !tbaa !4
  %28 = getelementptr inbounds nuw %struct.VP9DSPContext, ptr %27, i32 0, i32 1
  %29 = getelementptr inbounds [5 x [4 x ptr]], ptr %28, i64 0, i64 1
  %30 = getelementptr inbounds [4 x ptr], ptr %29, i64 0, i64 2
  store ptr @idct_iadst_8x8_add_c, ptr %30, align 8, !tbaa !9
  %31 = load ptr, ptr %2, align 8, !tbaa !4
  %32 = getelementptr inbounds nuw %struct.VP9DSPContext, ptr %31, i32 0, i32 1
  %33 = getelementptr inbounds [5 x [4 x ptr]], ptr %32, i64 0, i64 1
  %34 = getelementptr inbounds [4 x ptr], ptr %33, i64 0, i64 3
  store ptr @iadst_iadst_8x8_add_c, ptr %34, align 8, !tbaa !9
  %35 = load ptr, ptr %2, align 8, !tbaa !4
  %36 = getelementptr inbounds nuw %struct.VP9DSPContext, ptr %35, i32 0, i32 1
  %37 = getelementptr inbounds [5 x [4 x ptr]], ptr %36, i64 0, i64 2
  %38 = getelementptr inbounds [4 x ptr], ptr %37, i64 0, i64 0
  store ptr @idct_idct_16x16_add_c, ptr %38, align 8, !tbaa !9
  %39 = load ptr, ptr %2, align 8, !tbaa !4
  %40 = getelementptr inbounds nuw %struct.VP9DSPContext, ptr %39, i32 0, i32 1
  %41 = getelementptr inbounds [5 x [4 x ptr]], ptr %40, i64 0, i64 2
  %42 = getelementptr inbounds [4 x ptr], ptr %41, i64 0, i64 1
  store ptr @iadst_idct_16x16_add_c, ptr %42, align 8, !tbaa !9
  %43 = load ptr, ptr %2, align 8, !tbaa !4
  %44 = getelementptr inbounds nuw %struct.VP9DSPContext, ptr %43, i32 0, i32 1
  %45 = getelementptr inbounds [5 x [4 x ptr]], ptr %44, i64 0, i64 2
  %46 = getelementptr inbounds [4 x ptr], ptr %45, i64 0, i64 2
  store ptr @idct_iadst_16x16_add_c, ptr %46, align 8, !tbaa !9
  %47 = load ptr, ptr %2, align 8, !tbaa !4
  %48 = getelementptr inbounds nuw %struct.VP9DSPContext, ptr %47, i32 0, i32 1
  %49 = getelementptr inbounds [5 x [4 x ptr]], ptr %48, i64 0, i64 2
  %50 = getelementptr inbounds [4 x ptr], ptr %49, i64 0, i64 3
  store ptr @iadst_iadst_16x16_add_c, ptr %50, align 8, !tbaa !9
  %51 = load ptr, ptr %2, align 8, !tbaa !4
  %52 = getelementptr inbounds nuw %struct.VP9DSPContext, ptr %51, i32 0, i32 1
  %53 = getelementptr inbounds [5 x [4 x ptr]], ptr %52, i64 0, i64 3
  %54 = getelementptr inbounds [4 x ptr], ptr %53, i64 0, i64 3
  store ptr @idct_idct_32x32_add_c, ptr %54, align 8, !tbaa !9
  %55 = load ptr, ptr %2, align 8, !tbaa !4
  %56 = getelementptr inbounds nuw %struct.VP9DSPContext, ptr %55, i32 0, i32 1
  %57 = getelementptr inbounds [5 x [4 x ptr]], ptr %56, i64 0, i64 3
  %58 = getelementptr inbounds [4 x ptr], ptr %57, i64 0, i64 1
  store ptr @idct_idct_32x32_add_c, ptr %58, align 8, !tbaa !9
  %59 = load ptr, ptr %2, align 8, !tbaa !4
  %60 = getelementptr inbounds nuw %struct.VP9DSPContext, ptr %59, i32 0, i32 1
  %61 = getelementptr inbounds [5 x [4 x ptr]], ptr %60, i64 0, i64 3
  %62 = getelementptr inbounds [4 x ptr], ptr %61, i64 0, i64 2
  store ptr @idct_idct_32x32_add_c, ptr %62, align 8, !tbaa !9
  %63 = load ptr, ptr %2, align 8, !tbaa !4
  %64 = getelementptr inbounds nuw %struct.VP9DSPContext, ptr %63, i32 0, i32 1
  %65 = getelementptr inbounds [5 x [4 x ptr]], ptr %64, i64 0, i64 3
  %66 = getelementptr inbounds [4 x ptr], ptr %65, i64 0, i64 0
  store ptr @idct_idct_32x32_add_c, ptr %66, align 8, !tbaa !9
  %67 = load ptr, ptr %2, align 8, !tbaa !4
  %68 = getelementptr inbounds nuw %struct.VP9DSPContext, ptr %67, i32 0, i32 1
  %69 = getelementptr inbounds [5 x [4 x ptr]], ptr %68, i64 0, i64 4
  %70 = getelementptr inbounds [4 x ptr], ptr %69, i64 0, i64 3
  store ptr @iwht_iwht_4x4_add_c, ptr %70, align 8, !tbaa !9
  %71 = load ptr, ptr %2, align 8, !tbaa !4
  %72 = getelementptr inbounds nuw %struct.VP9DSPContext, ptr %71, i32 0, i32 1
  %73 = getelementptr inbounds [5 x [4 x ptr]], ptr %72, i64 0, i64 4
  %74 = getelementptr inbounds [4 x ptr], ptr %73, i64 0, i64 1
  store ptr @iwht_iwht_4x4_add_c, ptr %74, align 8, !tbaa !9
  %75 = load ptr, ptr %2, align 8, !tbaa !4
  %76 = getelementptr inbounds nuw %struct.VP9DSPContext, ptr %75, i32 0, i32 1
  %77 = getelementptr inbounds [5 x [4 x ptr]], ptr %76, i64 0, i64 4
  %78 = getelementptr inbounds [4 x ptr], ptr %77, i64 0, i64 2
  store ptr @iwht_iwht_4x4_add_c, ptr %78, align 8, !tbaa !9
  %79 = load ptr, ptr %2, align 8, !tbaa !4
  %80 = getelementptr inbounds nuw %struct.VP9DSPContext, ptr %79, i32 0, i32 1
  %81 = getelementptr inbounds [5 x [4 x ptr]], ptr %80, i64 0, i64 4
  %82 = getelementptr inbounds [4 x ptr], ptr %81, i64 0, i64 0
  store ptr @iwht_iwht_4x4_add_c, ptr %82, align 8, !tbaa !9
  ret void
}