; Function Attrs: cold mustprogress nofree norecurse nosync nounwind optsize willreturn memory(argmem: write) uwtable
define internal fastcc void @vp9dsp_itxfm_init(ptr noundef writeonly captures(none) initializes((480, 640)) %0) unnamed_addr #1 {
  %2 = getelementptr inbounds nuw i8, ptr %0, i64 480
  store ptr @idct_idct_4x4_add_c, ptr %2, align 8, !tbaa !4
  %3 = getelementptr inbounds nuw i8, ptr %0, i64 488
  store ptr @iadst_idct_4x4_add_c, ptr %3, align 8, !tbaa !4
  %4 = getelementptr inbounds nuw i8, ptr %0, i64 496
  store ptr @idct_iadst_4x4_add_c, ptr %4, align 8, !tbaa !4
  %5 = getelementptr inbounds nuw i8, ptr %0, i64 504
  store ptr @iadst_iadst_4x4_add_c, ptr %5, align 8, !tbaa !4
  %6 = getelementptr inbounds nuw i8, ptr %0, i64 512
  store ptr @idct_idct_8x8_add_c, ptr %6, align 8, !tbaa !4
  %7 = getelementptr inbounds nuw i8, ptr %0, i64 520
  store ptr @iadst_idct_8x8_add_c, ptr %7, align 8, !tbaa !4
  %8 = getelementptr inbounds nuw i8, ptr %0, i64 528
  store ptr @idct_iadst_8x8_add_c, ptr %8, align 8, !tbaa !4
  %9 = getelementptr inbounds nuw i8, ptr %0, i64 536
  store ptr @iadst_iadst_8x8_add_c, ptr %9, align 8, !tbaa !4
  %10 = getelementptr inbounds nuw i8, ptr %0, i64 544
  store ptr @idct_idct_16x16_add_c, ptr %10, align 8, !tbaa !4
  %11 = getelementptr inbounds nuw i8, ptr %0, i64 552
  store ptr @iadst_idct_16x16_add_c, ptr %11, align 8, !tbaa !4
  %12 = getelementptr inbounds nuw i8, ptr %0, i64 560
  store ptr @idct_iadst_16x16_add_c, ptr %12, align 8, !tbaa !4
  %13 = getelementptr inbounds nuw i8, ptr %0, i64 568
  store ptr @iadst_iadst_16x16_add_c, ptr %13, align 8, !tbaa !4
  %14 = getelementptr inbounds nuw i8, ptr %0, i64 576
  %15 = getelementptr inbounds nuw i8, ptr %0, i64 600
  store ptr @idct_idct_32x32_add_c, ptr %15, align 8, !tbaa !4
  %16 = getelementptr inbounds nuw i8, ptr %0, i64 584
  store ptr @idct_idct_32x32_add_c, ptr %16, align 8, !tbaa !4
  %17 = getelementptr inbounds nuw i8, ptr %0, i64 592
  store ptr @idct_idct_32x32_add_c, ptr %17, align 8, !tbaa !4
  store ptr @idct_idct_32x32_add_c, ptr %14, align 8, !tbaa !4
  %18 = getelementptr inbounds nuw i8, ptr %0, i64 608
  %19 = getelementptr inbounds nuw i8, ptr %0, i64 632
  store ptr @iwht_iwht_4x4_add_c, ptr %19, align 8, !tbaa !4
  %20 = getelementptr inbounds nuw i8, ptr %0, i64 616
  store ptr @iwht_iwht_4x4_add_c, ptr %20, align 8, !tbaa !4
  %21 = getelementptr inbounds nuw i8, ptr %0, i64 624
  store ptr @iwht_iwht_4x4_add_c, ptr %21, align 8, !tbaa !4
  store ptr @iwht_iwht_4x4_add_c, ptr %18, align 8, !tbaa !4
  ret void
}